target datalayout = "e-m:e-p270:32:32-p271:32:32-p272:64:64-i64:64-i128:128-f80:128-n8:16:32:64-S128"
target triple = "x86_64-pc-linux-gnu"

%struct.WebPData = type { ptr, i64 }
%struct.WebPChunk = type { i32, i32, %struct.WebPData, ptr }

; Function Attrs: nounwind uwtable
define internal i32 @AddDataToChunkList(ptr noundef %0, i32 noundef %1, i32 noundef %2, ptr noundef %3) #0 {
  %5 = alloca i32, align 4
  %6 = alloca ptr, align 8
  %7 = alloca i32, align 4
  %8 = alloca i32, align 4
  %9 = alloca ptr, align 8
  %10 = alloca %struct.WebPChunk, align 8
  %11 = alloca i32, align 4
  %12 = alloca i32, align 4
  store ptr %0, ptr %6, align 8, !tbaa !17
  store i32 %1, ptr %7, align 4, !tbaa !3
  store i32 %2, ptr %8, align 4, !tbaa !3
  store ptr %3, ptr %9, align 8, !tbaa !52
  call void @llvm.lifetime.start.p0(i64 32, ptr %10) #7
  call void @llvm.lifetime.start.p0(i64 4, ptr %11) #7
  call void @ChunkInit(ptr noundef %10)
  %13 = load ptr, ptr %6, align 8, !tbaa !17
  %14 = load i32, ptr %7, align 4, !tbaa !3
  %15 = load i32, ptr %8, align 4, !tbaa !3
  %16 = call i32 @ChunkAssignData(ptr noundef %10, ptr noundef %13, i32 noundef %14, i32 noundef %15)
  store i32 %16, ptr %11, align 4, !tbaa !3
  %17 = load i32, ptr %11, align 4, !tbaa !3
  %18 = icmp ne i32 %17, 1
  br i1 %18, label %19, label %20

19:                                               ; preds = %4
  br label %27

20:                                               ; preds = %4
  %21 = load ptr, ptr %9, align 8, !tbaa !52
  %22 = call i32 @ChunkSetHead(ptr noundef %10, ptr noundef %21)
  store i32 %22, ptr %11, align 4, !tbaa !3
  %23 = load i32, ptr %11, align 4, !tbaa !3
  %24 = icmp ne i32 %23, 1
  br i1 %24, label %25, label %26

25:                                               ; preds = %20
  br label %27

26:                                               ; preds = %20
  store i32 1, ptr %5, align 4
  store i32 1, ptr %12, align 4
  br label %30

27:                                               ; preds = %25, %19
  %28 = call ptr @ChunkRelease(ptr noundef %10)
  %29 = load i32, ptr %11, align 4, !tbaa !3
  store i32 %29, ptr %5, align 4
  store i32 1, ptr %12, align 4
  br label %30

30:                                               ; preds = %27, %26
  call void @llvm.lifetime.end.p0(i64 4, ptr %11) #7
  call void @llvm.lifetime.end.p0(i64 32, ptr %10) #7
  %31 = load i32, ptr %5, align 4
  ret i32 %31
}