; Function Attrs: nounwind uwtable
define internal fastcc i32 @AddDataToChunkList(ptr noundef nonnull %0, i32 noundef %1, i32 noundef %2, ptr noundef nonnull %3) unnamed_addr #0 {
  %5 = alloca %struct.WebPChunk, align 8
  call void @llvm.lifetime.start.p0(i64 32, ptr nonnull %5) #7
  call void @ChunkInit(ptr noundef nonnull %5) #7
  %6 = call i32 @ChunkAssignData(ptr noundef nonnull %5, ptr noundef nonnull %0, i32 noundef %1, i32 noundef %2) #7
  %.not = icmp eq i32 %6, 1
  br i1 %.not, label %7, label %9

7:                                                ; preds = %4
  %8 = call i32 @ChunkSetHead(ptr noundef nonnull %5, ptr noundef nonnull %3) #7
  %.not10 = icmp eq i32 %8, 1
  br i1 %.not10, label %11, label %9

9:                                                ; preds = %7, %4
  %.0 = phi i32 [ %6, %4 ], [ %8, %7 ]
  %10 = call ptr @ChunkRelease(ptr noundef nonnull %5) #7
  br label %11

11:                                               ; preds = %7, %9
  %.07 = phi i32 [ %.0, %9 ], [ 1, %7 ]
  call void @llvm.lifetime.end.p0(i64 32, ptr nonnull %5) #7
  ret i32 %.07
}